; Function Attrs: mustprogress nofree norecurse nosync nounwind willreturn memory(read, inaccessiblemem: none) uwtable
define hidden noundef float @_ZNK6Assimp13ColladaLoader9ReadFloatERKNS_7Collada8AccessorERKNS1_4DataEmm(ptr noundef nonnull readnone align 8 captures(none) dereferenceable(380) %0, ptr noundef nonnull readonly align 8 captures(none) dereferenceable(128) %1, ptr noundef nonnull readonly align 8 captures(none) dereferenceable(56) %2, i64 noundef %3, i64 noundef %4) local_unnamed_addr #14 align 2 {
  %6 = getelementptr inbounds nuw i8, ptr %1, i64 24
  %7 = load i64, ptr %6, align 8
  %8 = mul i64 %7, %3
  %9 = getelementptr inbounds nuw i8, ptr %1, i64 16
  %10 = load i64, ptr %9, align 8
  %11 = getelementptr inbounds nuw i8, ptr %2, i64 8
  %12 = load ptr, ptr %11, align 8
  %13 = getelementptr float, ptr %12, i64 %8
  %14 = getelementptr float, ptr %13, i64 %10
  %15 = getelementptr float, ptr %14, i64 %4
  %16 = load float, ptr %15, align 4
  ret float %16
}